(dp0
S'Canada'
p1
(ination
Nation
p2
(dp3
S'area'
p4
S'3855000'
p5
sS'population'
p6
S'34.8'
p7
sS'name'
p8
g1
sS'continent'
p9
S'North America'
p10
sbsS'Libyan Arab Jamahiriya'
p11
(ination
Nation
p12
(dp13
g4
S'679359'
p14
sg6
S'6.2'
p15
sg8
g11
sg9
S'Africa'
p16
sbsS'Sao Tome and Principe'
p17
(ination
Nation
p18
(dp19
g4
S'372'
p20
sg6
S'.19'
p21
sg8
g17
sg9
S'Africa'
p22
sbsS'Turkmenistan'
p23
(ination
Nation
p24
(dp25
g4
S'188456'
p26
sg6
S'5.1'
p27
sg8
g23
sg9
S'Asia'
p28
sbsS'United Republic of Tanzania'
p29
(ination
Nation
p30
(dp31
g4
S'364898'
p32
sg6
S'50.0'
p33
sg8
g29
sg9
S'Africa'
p34
sbsS'Lithuania'
p35
(ination
Nation
p36
(dp37
g4
S'25173'
p38
sg6
S'3.5'
p39
sg8
g35
sg9
S'Europe'
p40
sbsS'Cambodia'
p41
(ination
Nation
p42
(dp43
g4
S'69898'
p44
sg6
S'15.5'
p45
sg8
g41
sg9
S'Asia'
p46
sbsS'Saint Kitts and Nevis'
p47
(ination
Nation
p48
(dp49
g4
S'101'
p50
sg6
S'.052'
p51
sg8
g47
sg9
S'North America'
p52
sbsS'Ethiopia'
p53
(ination
Nation
p54
(dp55
g4
S'426371'
p56
sg6
S'96.6'
p57
sg8
g53
sg9
S'Africa'
p58
sbsS'Swaziland'
p59
(ination
Nation
p60
(dp61
g4
S'6704'
p62
sg6
S'1.4'
p63
sg8
g59
sg9
S'Africa'
p64
sbsS'Argentina'
p65
(ination
Nation
p66
(dp67
g4
S'1068302'
p68
sg6
S'44.0'
p69
sg8
g65
sg9
S'South America'
p70
sbsS'Bolivia'
p71
(ination
Nation
p72
(dp73
g4
S'424163'
p74
sg6
S'10.6'
p75
sg8
g71
sg9
S'South America'
p76
sbsS'Cameroon'
p77
(ination
Nation
p78
(dp79
g4
S'183568'
p80
sg6
S'23.1'
p81
sg8
g77
sg9
S'Africa'
p82
sbsS'Burkina Faso'
p83
(ination
Nation
p84
(dp85
g4
S'105792'
p86
sg6
S'18.4'
p87
sg8
g83
sg9
S'Africa'
p88
sbsS'Ghana'
p89
(ination
Nation
p90
(dp91
g4
S'92098'
p92
sg6
S'25.8'
p93
sg8
g89
sg9
S'Africa'
p94
sbsS'Saudi Arabia'
p95
(ination
Nation
p96
(dp97
g4
S'829996'
p98
sg6
S'27.3'
p99
sg8
g95
sg9
S'Asia'
p100
sbsS'Cape Verde'
p101
(ination
Nation
p102
(dp103
g4
S'1557'
p104
sg6
S'.54'
p105
sg8
g101
sg9
S'Africa'
p106
sbsS'Slovenia'
p107
(ination
Nation
p108
(dp109
g4
S'7827'
p110
sg6
S'2.0'
p111
sg8
g107
sg9
S'Europe'
p112
sbsS'Guatemala'
p113
(ination
Nation
p114
(dp115
g4
S'42042'
p116
sg6
S'14.7'
p117
sg8
g113
sg9
S'North America'
p118
sbsS'Bosnia and Herzegovina'
p119
(ination
Nation
p120
(dp121
g4
S'19767'
p122
sg6
S'3.9'
p123
sg8
g119
sg9
S'Europe'
p124
sbsS'Kuwait'
p125
(ination
Nation
p126
(dp127
g4
S'6880'
p128
sg6
S'2.7'
p129
sg8
g125
sg9
S'Asia'
p130
sbsS'Russian Federation'
p131
(ination
Nation
p132
(dp133
g4
S'6592800'
p134
sg6
S'142.5'
p135
sg8
g131
sg9
S'Europe'
p136
sbsS'Jordan'
p137
(ination
Nation
p138
(dp139
g4
S'45495'
p140
sg6
S'7.9'
p141
sg8
g137
sg9
S'Asia'
p142
sbsS'Dominica'
p143
(ination
Nation
p144
(dp145
g4
S'290'
p146
sg6
S'.073'
p147
sg8
g143
sg9
S'North America'
p148
sbsS'Liberia'
p149
(ination
Nation
p150
(dp151
g4
S'43000'
p152
sg6
S'4.1'
p153
sg8
g149
sg9
S'Africa'
p154
sbsS'Maldives'
p155
(ination
Nation
p156
(dp157
g4
S'115'
p158
sg6
S'.39'
p159
sg8
g155
sg9
S'Asia'
p160
sbsS'Pakistan'
p161
(ination
Nation
p162
(dp163
g4
S'310403'
p164
sg6
S'196.2'
p165
sg8
g161
sg9
S'Asia'
p166
sbsS'Oman'
p167
(ination
Nation
p168
(dp169
g4
S'119498'
p170
sg6
S'3.2'
p171
sg8
g167
sg9
S'Asia'
p172
sbsS'Seychelles'
p173
(ination
Nation
p174
(dp175
g4
S'174'
p176
sg6
S'.092'
p177
sg8
g173
sg9
S'Africa'
p178
sbsS'Gabon'
p179
(ination
Nation
p180
(dp181
g4
S'103347'
p182
sg6
S'1.7'
p183
sg8
g179
sg9
S'Africa'
p184
sbsS'Monaco'
p185
(ination
Nation
p186
(dp187
g4
S'0.76'
p188
sg6
S'.031'
p189
sg8
g185
sg9
S'Europe'
p190
sbsS'New Zealand'
p191
(ination
Nation
p192
(dp193
g4
S'103738'
p194
sg6
S'4.4'
p195
sg8
g191
sg9
S'Australia/Oceania'
p196
sbsS'Yemen'
p197
(ination
Nation
p198
(dp199
g4
S'203849'
p200
sg6
S'26.1'
p201
sg8
g197
sg9
S'Asia'
p202
sbsS'Jamaica'
p203
(ination
Nation
p204
(dp205
g4
S'4444'
p206
sg6
S'2.9'
p207
sg8
g203
sg9
S'North America'
p208
sbsS'Albania'
p209
(ination
Nation
p210
(dp211
g4
S'11100'
p212
sg6
S'3.0'
p213
sg8
g209
sg9
S'Europe'
p214
sbsS'Samoa'
p215
(ination
Nation
p216
(dp217
g4
S'1093'
p218
sg6
S'.20'
p219
sg8
g215
sg9
S'Australia/Oceania'
p220
sbsS'United Arab Emirates'
p221
(ination
Nation
p222
(dp223
g4
S'32278'
p224
sg6
S'5.6'
p225
sg8
g221
sg9
S'Asia'
p226
sbsS'India'
p227
(ination
Nation
p228
(dp229
g4
S'1269210'
p230
sg6
S'1236.3'
p231
sg8
g227
sg9
S'Asia'
p232
sbsS'Azerbaijan'
p233
(ination
Nation
p234
(dp235
g4
S'33436'
p236
sg6
S'9.7'
p237
sg8
g233
sg9
S'Asia'
p238
sbsS'Lesotho'
p239
(ination
Nation
p240
(dp241
g4
S'12727'
p242
sg6
S'1.9'
p243
sg8
g239
sg9
S'Africa'
p244
sbsS'Saint Vincent and the Grenadines'
p245
(ination
Nation
p246
(dp247
g4
S'150'
p248
sg6
S'.10'
p249
sg8
g245
sg9
S'North America'
p250
sbsS'Kenya'
p251
(ination
Nation
p252
(dp253
g4
S'224080'
p254
sg6
S'45.0'
p255
sg8
g251
sg9
S'Africa'
p256
sbsS'Tajikistan'
p257
(ination
Nation
p258
(dp259
g4
S'55251'
p260
sg6
S'8.1'
p261
sg8
g257
sg9
S'Asia'
p262
sbsS'Turkey'
p263
(ination
Nation
p264
(dp265
g4
S'302535'
p266
sg6
S'81.6'
p267
sg8
g263
sg9
S'Asia'
p268
sbsS'Afghanistan'
p269
(ination
Nation
p270
(dp271
g4
S'251772'
p272
sg6
S'31.8'
p273
sg8
g269
sg9
S'Asia'
p274
sbsS'Bangladesh'
p275
(ination
Nation
p276
(dp277
g4
S'55599'
p278
sg6
S'166.3'
p279
sg8
g275
sg9
S'Asia'
p280
sbsS'Mauritania'
p281
(ination
Nation
p282
(dp283
g4
S'397954'
p284
sg6
S'3.5'
p285
sg8
g281
sg9
S'Africa'
p286
sbsS'Solomon Islands'
p287
(ination
Nation
p288
(dp289
g4
S'43'
p290
sg6
S'.61'
p291
sg8
g287
sg9
S'Australia/Oceania'
p292
sbsS'Saint Lucia'
p293
(ination
Nation
p294
(dp295
g4
S'239'
p296
sg6
S'.16'
p297
sg8
g293
sg9
S'North America'
p298
sbsS'San Marino'
p299
(ination
Nation
p300
(dp301
g4
S'23.5'
p302
sg6
S'.033'
p303
sg8
g299
sg9
S'Europe'
p304
sbsS'Mongolia'
p305
(ination
Nation
p306
(dp307
g4
S'603909'
p308
sg6
S'3.0'
p309
sg8
g305
sg9
S'Asia'
p310
sbsS'France'
p311
(ination
Nation
p312
(dp313
g4
S'211209'
p314
sg6
S'66.3'
p315
sg8
g311
sg9
S'Europe'
p316
sbsS'Syrian Arab Republic'
p317
(ination
Nation
p318
(dp319
g4
S'71479'
p320
sg6
S'18.0'
p321
sg8
g317
sg9
S'Asia'
p322
sbsS'Rwanda'
p323
(ination
Nation
p324
(dp325
g4
S'10169'
p326
sg6
S'12.3'
p327
sg8
g323
sg9
S'Africa'
p328
sbsS'Slovakia'
p329
(ination
Nation
p330
(dp331
g4
S'18932'
p332
sg6
S'5.4'
p333
sg8
g329
sg9
S'Europe'
p334
sbsS'Somalia'
p335
(ination
Nation
p336
(dp337
g4
S'246201'
p338
sg6
S'10.4'
p339
sg8
g335
sg9
S'Africa'
p340
sbsS'Peru'
p341
(ination
Nation
p342
(dp343
g4
S'496226'
p344
sg6
S'30.1'
p345
sg8
g341
sg9
S'South America'
p346
sbsS'Vanuatu'
p347
(ination
Nation
p348
(dp349
g4
S'4706'
p350
sg6
S'.27'
p351
sg8
g347
sg9
S'Australia/Oceania'
p352
sbsS'Nauru'
p353
(ination
Nation
p354
(dp355
g4
S'8'
p356
sg6
S'.0095'
p357
sg8
g353
sg9
S'Australia/Oceania'
p358
sbsS'Norway'
p359
(ination
Nation
p360
(dp361
g4
S'148746'
p362
sg6
S'5.1'
p363
sg8
g359
sg9
S'Europe'
p364
sbsS'Malawi'
p365
(ination
Nation
p366
(dp367
g4
S'45747'
p368
sg6
S'17.4'
p369
sg8
g365
sg9
S'Africa'
p370
sbsS'Benin'
p371
(ination
Nation
p372
(dp373
g4
S'43484'
p374
sg6
S'10.2'
p375
sg8
g371
sg9
S'Africa'
p376
sbsS'Cuba'
p377
(ination
Nation
p378
(dp379
g4
S'42803'
p380
sg6
S'11.0'
p381
sg8
g377
sg9
S'North America'
p382
sbsS'Montenegro'
p383
(ination
Nation
p384
(dp385
g4
S'5019'
p386
sg6
S'.65'
p387
sg8
g383
sg9
S'Europe'
p388
sbsS'Republic of the Congo'
p389
(ination
Nation
p390
(dp391
g4
S'132047'
p392
sg6
S'4.7'
p393
sg8
g389
sg9
S'Africa'
p394
sbsS'Togo'
p395
(ination
Nation
p396
(dp397
g4
S'21925'
p398
sg6
S'7.4'
p399
sg8
g395
sg9
S'Africa'
p400
sbsS'China'
p401
(ination
Nation
p402
(dp403
g4
S'3696100'
p404
sg6
S'1355.7'
p405
sg8
g401
sg9
S'Asia'
p406
sbsS'Armenia'
p407
(ination
Nation
p408
(dp409
g4
S'11506'
p410
sg6
S'3.1'
p411
sg8
g407
sg9
S'Asia'
p412
sbsS'Republic of Korea'
p413
(ination
Nation
p414
(dp415
g4
S'38622'
p416
sg6
S'49.0'
p417
sg8
g413
sg9
S'Asia'
p418
sbsS'Dominican Republic'
p419
(ination
Nation
p420
(dp421
g4
S'18704'
p422
sg6
S'10.4'
p423
sg8
g419
sg9
S'North America'
p424
sbsS'Ukraine'
p425
(ination
Nation
p426
(dp427
g4
S'233090'
p428
sg6
S'44.3'
p429
sg8
g425
sg9
S'Europe'
p430
sbsS'Bahrain'
p431
(ination
Nation
p432
(dp433
g4
S'253'
p434
sg6
S'1.3'
p435
sg8
g431
sg9
S'Asia'
p436
sbsS'Tonga'
p437
(ination
Nation
p438
(dp439
g4
S'289'
p440
sg6
S'.11'
p441
sg8
g437
sg9
S'Australia/Oceania'
p442
sbsS'Finland'
p443
(ination
Nation
p444
(dp445
g4
S'130596'
p446
sg6
S'5.3'
p447
sg8
g443
sg9
S'Europe'
p448
sbsS'Indonesia'
p449
(ination
Nation
p450
(dp451
g4
S'735355'
p452
sg6
S'253.6'
p453
sg8
g449
sg9
S'Asia'
p454
sbsS'Central African Republic'
p455
(ination
Nation
p456
(dp457
g4
S'240534'
p458
sg6
S'5.3'
p459
sg8
g455
sg9
S'Africa'
p460
sbsS'Mauritius'
p461
(ination
Nation
p462
(dp463
g4
S'787'
p464
sg6
S'1.3'
p465
sg8
g461
sg9
S'Africa'
p466
sbsS'Liechtenstein'
p467
(ination
Nation
p468
(dp469
g4
S'62'
p470
sg6
S'.037'
p471
sg8
g467
sg9
S'Europe'
p472
sbsS'Belarus'
p473
(ination
Nation
p474
(dp475
g4
S'80155'
p476
sg6
S'9.6'
p477
sg8
g473
sg9
S'Europe'
p478
sbsS'Mali'
p479
(ination
Nation
p480
(dp481
g4
S'478839'
p482
sg6
S'16.5'
p483
sg8
g479
sg9
S'Africa'
p484
sbsS'Sweden'
p485
(ination
Nation
p486
(dp487
g4
S'173732'
p488
sg6
S'9.7'
p489
sg8
g485
sg9
S'Europe'
p490
sbsS'Poland'
p491
(ination
Nation
p492
(dp493
g4
S'120726'
p494
sg6
S'38.3'
p495
sg8
g491
sg9
S'Europe'
p496
sbsS'Bulgaria'
p497
(ination
Nation
p498
(dp499
g4
S'42823'
p500
sg6
S'6.9'
p501
sg8
g497
sg9
S'Europe'
p502
sbsS'United States'
p503
(ination
Nation
p504
(dp505
g4
S'3794066'
p506
sg6
S'318.9'
p507
sg8
g503
sg9
S'North America'
p508
sbsS'Romania'
p509
(ination
Nation
p510
(dp511
g4
S'92043'
p512
sg6
S'21.7'
p513
sg8
g509
sg9
S'Europe'
p514
sbsS'Angola'
p515
(ination
Nation
p516
(dp517
g4
S'481354'
p518
sg6
S'19.1'
p519
sg8
g515
sg9
S'Africa'
p520
sbsS'Chad'
p521
(ination
Nation
p522
(dp523
g4
S'495753'
p524
sg6
S'11.4'
p525
sg8
g521
sg9
S'Africa'
p526
sbsS'South Africa'
p527
(ination
Nation
p528
(dp529
g4
S'471443'
p530
sg6
S'48.4'
p531
sg8
g527
sg9
S'Africa'
p532
sbsS'Cyprus'
p533
(ination
Nation
p534
(dp535
g4
S'3572'
p536
sg6
S'1.2'
p537
sg8
g533
sg9
S'Asia'
p538
sbsS'Brunei Darussalam'
p539
(ination
Nation
p540
(dp541
g4
S'2226'
p542
sg6
S'.42'
p543
sg8
g539
sg9
S'Asia'
p544
sbsS'Qatar'
p545
(ination
Nation
p546
(dp547
g4
S'4416'
p548
sg6
S'2.1'
p549
sg8
g545
sg9
S'Asia'
p550
sbsS'Malaysia'
p551
(ination
Nation
p552
(dp553
g4
S'127355'
p554
sg6
S'30.1'
p555
sg8
g551
sg9
S'Asia'
p556
sbsS'Austria'
p557
(ination
Nation
p558
(dp559
g4
S'32383'
p560
sg6
S'8.2'
p561
sg8
g557
sg9
S'Europe'
p562
sbsS'Vietnam'
p563
(ination
Nation
p564
(dp565
g4
S'128527'
p566
sg6
S'93.4'
p567
sg8
g563
sg9
S'Asia'
p568
sbsS'Mozambique'
p569
(ination
Nation
p570
(dp571
g4
S'309496'
p572
sg6
S'24.7'
p573
sg8
g569
sg9
S'Africa'
p574
sbsS'Uganda'
p575
(ination
Nation
p576
(dp577
g4
S'91136'
p578
sg6
S'35.9'
p579
sg8
g575
sg9
S'Africa'
p580
sbsS'Hungary'
p581
(ination
Nation
p582
(dp583
g4
S'35919'
p584
sg6
S'10.0'
p585
sg8
g581
sg9
S'Europe'
p586
sbsS'Niger'
p587
(ination
Nation
p588
(dp589
g4
S'489678'
p590
sg6
S'17.5'
p591
sg8
g587
sg9
S'Africa'
p592
sbsS'Brazil'
p593
(ination
Nation
p594
(dp595
g4
S'3287597'
p596
sg6
S'202.7'
p597
sg8
g593
sg9
S'South America'
p598
sbsS'Guinea'
p599
(ination
Nation
p600
(dp601
g4
S'94926'
p602
sg6
S'11.5'
p603
sg8
g599
sg9
S'Africa'
p604
sbsS'Panama'
p605
(ination
Nation
p606
(dp607
g4
S'29157'
p608
sg6
S'3.6'
p609
sg8
g605
sg9
S'North America'
p610
sbsS'Guyana'
p611
(ination
Nation
p612
(dp613
g4
S'83000'
p614
sg6
S'.74'
p615
sg8
g611
sg9
S'South America'
p616
sbsS'Republic of Moldova'
p617
(ination
Nation
p618
(dp619
g4
S'13067'
p620
sg6
S'3.6'
p621
sg8
g617
sg9
S'Europe'
p622
sbsS'Costa Rica'
p623
(ination
Nation
p624
(dp625
g4
S'19730'
p626
sg6
S'4.8'
p627
sg8
g623
sg9
S'North America'
p628
sbsS'Luxembourg'
p629
(ination
Nation
p630
(dp631
g4
S'998'
p632
sg6
S'.52'
p633
sg8
g629
sg9
S'Europe'
p634
sbsS'Bahamas'
p635
(ination
Nation
p636
(dp637
g4
S'5358'
p638
sg6
S'.32'
p639
sg8
g635
sg9
S'North America'
p640
sbsS'Ireland'
p641
(ination
Nation
p642
(dp643
g4
S'31520'
p644
sg6
S'4.8'
p645
sg8
g641
sg9
S'Europe'
p646
sbsS'Palau'
p647
(ination
Nation
p648
(dp649
g4
S'177'
p650
sg6
S'.021'
p651
sg8
g647
sg9
S'Australia/Oceania'
p652
sbsS'Nigeria'
p653
(ination
Nation
p654
(dp655
g4
S'356669'
p656
sg6
S'177.2'
p657
sg8
g653
sg9
S'Africa'
p658
sbsS'Ecuador'
p659
(ination
Nation
p660
(dp661
g4
S'98985'
p662
sg6
S'14.0'
p663
sg8
g659
sg9
S'South America'
p664
sbsS'Czech Republic'
p665
(ination
Nation
p666
(dp667
g4
S'30450'
p668
sg6
S'10.6'
p669
sg8
g665
sg9
S'Europe'
p670
sbsS'Australia'
p671
(ination
Nation
p672
(dp673
g4
S'2967909'
p674
sg6
S'22.5'
p675
sg8
g671
sg9
S'Australia/Oceania'
p676
sbsS'Iran'
p677
(ination
Nation
p678
(dp679
g4
S'636372'
p680
sg6
S'80.8'
p681
sg8
g677
sg9
S'Asia'
p682
sbsS'Algeria'
p683
(ination
Nation
p684
(dp685
g4
S'919595'
p686
sg6
S'38.3'
p687
sg8
g683
sg9
S'Africa'
p688
sbsS'El Salvador'
p689
(ination
Nation
p690
(dp691
g4
S'8124'
p692
sg6
S'6.2'
p693
sg8
g689
sg9
S'North America'
p694
sbsS'Tuvalu'
p695
(ination
Nation
p696
(dp697
g4
S'10'
p698
sg6
S'.011'
p699
sg8
g695
sg9
S'Australia/Oceania'
p700
sbsS'Marshall Islands'
p701
(ination
Nation
p702
(dp703
g4
S'69'
p704
sg6
S'.071'
p705
sg8
g701
sg9
S'Australia/Oceania'
p706
sbsS'Chile'
p707
(ination
Nation
p708
(dp709
g4
S'292183'
p710
sg6
S'17.4'
p711
sg8
g707
sg9
S'South America'
p712
sbsS'Belgium'
p713
(ination
Nation
p714
(dp715
g4
S'11787'
p716
sg6
S'10.4'
p717
sg8
g713
sg9
S'Europe'
p718
sbsS'Kiribati'
p719
(ination
Nation
p720
(dp721
g4
S'280'
p722
sg6
S'.10'
p723
sg8
g719
sg9
S'Australia/Oceania'
p724
sbsS'Haiti'
p725
(ination
Nation
p726
(dp727
g4
S'10714'
p728
sg6
S'10.2'
p729
sg8
g725
sg9
S'North America'
p730
sbsS'Iraq'
p731
(ination
Nation
p732
(dp733
g4
S'169234'
p734
sg6
S'32.6'
p735
sg8
g731
sg9
S'Asia'
p736
sbsS'Sierra Leone'
p737
(ination
Nation
p738
(dp739
g4
S'27699'
p740
sg6
S'5.7'
p741
sg8
g737
sg9
S'Africa'
p742
sbsS'Georgia'
p743
(ination
Nation
p744
(dp745
g4
S'26916'
p746
sg6
S'4.9'
p747
sg8
g743
sg9
S'Asia'
p748
sbsS"Lao People's Democratic Republic"
p749
(ination
Nation
p750
(dp751
g4
S'91429'
p752
sg6
S'6.8'
p753
sg8
g749
sg9
S'Asia'
p754
sbsS'Gambia'
p755
(ination
Nation
p756
(dp757
g4
S'4007'
p758
sg6
S'1.9'
p759
sg8
g755
sg9
S'Africa'
p760
sbsS'Philippines'
p761
(ination
Nation
p762
(dp763
g4
S'115831'
p764
sg6
S'107.7'
p765
sg8
g761
sg9
S'Asia'
p766
sbsS'Guinea Bissau'
p767
(ination
Nation
p768
(dp769
g4
S'13948'
p770
sg6
S'1.7'
p771
sg8
g767
sg9
S'Africa'
p772
sbsS'Morocco'
p773
(ination
Nation
p774
(dp775
g4
S'172414'
p776
sg6
S'33.0'
p777
sg8
g773
sg9
S'Africa'
p778
sbsS'Croatia'
p779
(ination
Nation
p780
(dp781
g4
S'21831'
p782
sg6
S'4.5'
p783
sg8
g779
sg9
S'Europe'
p784
sbsS'Micronesia'
p785
(ination
Nation
p786
(dp787
g4
S'271'
p788
sg6
S'.11'
p789
sg8
g785
sg9
S'Australia/Oceania'
p790
sbsS'Thailand'
p791
(ination
Nation
p792
(dp793
g4
S'198115'
p794
sg6
S'67.7'
p795
sg8
g791
sg9
S'Asia'
p796
sbsS'Switzerland'
p797
(ination
Nation
p798
(dp799
g4
S'15940'
p800
sg6
S'8.1'
p801
sg8
g797
sg9
S'Europe'
p802
sbsS'Grenada'
p803
(ination
Nation
p804
(dp805
g4
S'132'
p806
sg6
S'.11'
p807
sg8
g803
sg9
S'North America'
p808
sbsS'Belize'
p809
(ination
Nation
p810
(dp811
g4
S'8867'
p812
sg6
S'.34'
p813
sg8
g809
sg9
S'North America'
p814
sbsS'Portugal'
p815
(ination
Nation
p816
(dp817
g4
S'35645'
p818
sg6
S'10.9'
p819
sg8
g815
sg9
S'Europe'
p820
sbsS'Estonia'
p821
(ination
Nation
p822
(dp823
g4
S'17413'
p824
sg6
S'1.3'
p825
sg8
g821
sg9
S'Europe'
p826
sbsS'Uruguay'
p827
(ination
Nation
p828
(dp829
g4
S'68037'
p830
sg6
S'3.3'
p831
sg8
g827
sg9
S'South America'
p832
sbsS'Mexico'
p833
(ination
Nation
p834
(dp835
g4
S'761606'
p836
sg6
S'120.3'
p837
sg8
g833
sg9
S'North America'
p838
sbsS'Lebanon'
p839
(ination
Nation
p840
(dp841
g4
S'4035'
p842
sg6
S'5.9'
p843
sg8
g839
sg9
S'Asia'
p844
sbsS'Uzbekistan'
p845
(ination
Nation
p846
(dp847
g4
S'172742'
p848
sg6
S'28.9'
p849
sg8
g845
sg9
S'Asia'
p850
sbsS'Tunisia'
p851
(ination
Nation
p852
(dp853
g4
S'63170'
p854
sg6
S'10.9'
p855
sg8
g851
sg9
S'Africa'
p856
sbsS'Djibouti'
p857
(ination
Nation
p858
(dp859
g4
S'8958'
p860
sg6
S'.81'
p861
sg8
g857
sg9
S'Africa'
p862
sbsS'Antigua and Barbuda'
p863
(ination
Nation
p864
(dp865
g4
S'108'
p866
sg6
S'.091'
p867
sg8
g863
sg9
S'North America'
p868
sbsS'Spain'
p869
(ination
Nation
p870
(dp871
g4
S'195364'
p872
sg6
S'47.7'
p873
sg8
g869
sg9
S'Europe'
p874
sbsS'Colombia'
p875
(ination
Nation
p876
(dp877
g4
S'440839'
p878
sg6
S'46.2'
p879
sg8
g875
sg9
S'South America'
p880
sbsS'Burundi'
p881
(ination
Nation
p882
(dp883
g4
S'10745'
p884
sg6
S'10.4'
p885
sg8
g881
sg9
S'Africa'
p886
sbsS'Fiji'
p887
(ination
Nation
p888
(dp889
g4
S'7056'
p890
sg6
S'.90'
p891
sg8
g887
sg9
S'Australia/Oceania'
p892
sbsS'Barbados'
p893
(ination
Nation
p894
(dp895
g4
S'167'
p896
sg6
S'.29'
p897
sg8
g893
sg9
S'North America'
p898
sbsS'Madagascar'
p899
(ination
Nation
p900
(dp901
g4
S'226597'
p902
sg6
S'23.2'
p903
sg8
g899
sg9
S'Africa'
p904
sbsS'Italy'
p905
(ination
Nation
p906
(dp907
g4
S'116346'
p908
sg6
S'61.7'
p909
sg8
g905
sg9
S'Europe'
p910
sbsS'Bhutan'
p911
(ination
Nation
p912
(dp913
g4
S'14824'
p914
sg6
S'.73'
p915
sg8
g911
sg9
S'Asia'
p916
sbsS'Sudan'
p917
(ination
Nation
p918
(dp919
g4
S'967495'
p920
sg6
S'35.5'
p921
sg8
g917
sg9
S'Africa'
p922
sbsS'Serbia'
p923
(ination
Nation
p924
(dp925
g4
S'34116'
p926
sg6
S'7.2'
p927
sg8
g923
sg9
S'Europe'
p928
sbsS'Nepal'
p929
(ination
Nation
p930
(dp931
g4
S'56827'
p932
sg6
S'31.0'
p933
sg8
g929
sg9
S'Asia'
p934
sbsS'Malta'
p935
(ination
Nation
p936
(dp937
g4
S'121'
p938
sg6
S'.41'
p939
sg8
g935
sg9
S'Europe'
p940
sbsS'Democratic Republic of the Congo'
p941
(ination
Nation
p942
(dp943
g4
S'905355'
p944
sg6
S'77.4'
p945
sg8
g941
sg9
S'Africa'
p946
sbsS'Netherlands'
p947
(ination
Nation
p948
(dp949
g4
S'16033'
p950
sg6
S'16.59'
p951
sg8
g947
sg9
S'Europe'
p952
sbsS'United Kingdom'
p953
(ination
Nation
p954
(dp955
g4
S'94526'
p956
sg6
S'66.7'
p957
sg8
g953
sg9
S'Europe'
p958
sbsS'Suriname'
p959
(ination
Nation
p960
(dp961
g4
S'63251'
p962
sg6
S'.57'
p963
sg8
g959
sg9
S'South America'
p964
sbsS'Venezuela'
p965
(ination
Nation
p966
(dp967
g4
S'353841'
p968
sg6
S'28.9'
p969
sg8
g965
sg9
S'South America'
p970
sbsS'The former Yugoslav Republic of Macedonia'
p971
(ination
Nation
p972
(dp973
g4
S'205'
p974
sg6
S'2.1'
p975
sg8
g971
sg9
S'Europe'
p976
sbsS'Israel'
p977
(ination
Nation
p978
(dp979
g4
S'8019'
p980
sg6
S'7.8'
p981
sg8
g977
sg9
S'Asia'
p982
sbsS'Iceland'
p983
(ination
Nation
p984
(dp985
g4
S'39770'
p986
sg6
S'.32'
p987
sg8
g983
sg9
S'Europe'
p988
sbsS'Zambia'
p989
(ination
Nation
p990
(dp991
g4
S'290587'
p992
sg6
S'14.7'
p993
sg8
g989
sg9
S'Africa'
p994
sbsS'Senegal'
p995
(ination
Nation
p996
(dp997
g4
S'76000'
p998
sg6
S'13.6'
p999
sg8
g995
sg9
S'Africa'
p1000
sbsS'Papua New Guinea'
p1001
(ination
Nation
p1002
(dp1003
g4
S'178703'
p1004
sg6
S'6.6'
p1005
sg8
g1001
sg9
S'Australia/Oceania'
p1006
sbsS'Trinidad and Tobago'
p1007
(ination
Nation
p1008
(dp1009
g4
S'1978'
p1010
sg6
S'1.2'
p1011
sg8
g1007
sg9
S'North America'
p1012
sbsS'Zimbabwe'
p1013
(ination
Nation
p1014
(dp1015
g4
S'150871'
p1016
sg6
S'13.8'
p1017
sg8
g1013
sg9
S'Africa'
p1018
sbsS'Germany'
p1019
(ination
Nation
p1020
(dp1021
g4
S'137847'
p1022
sg6
S'81.0'
p1023
sg8
g1019
sg9
S'Europe'
p1024
sbsS'Denmark'
p1025
(ination
Nation
p1026
(dp1027
g4
S'16640'
p1028
sg6
S'5.6'
p1029
sg8
g1025
sg9
S'Europe'
p1030
sbsS'Kazakhstan'
p1031
(ination
Nation
p1032
(dp1033
g4
S'1052085'
p1034
sg6
S'18.0'
p1035
sg8
g1031
sg9
S'Asia'
p1036
sbsS"Cote D'Ivoire"
p1037
(ination
Nation
p1038
(dp1039
g4
S'124502'
p1040
sg6
S'22.8'
p1041
sg8
g1037
sg9
S'Africa'
p1042
sbsS'Eritrea'
p1043
(ination
Nation
p1044
(dp1045
g4
S'45405'
p1046
sg6
S'6.3'
p1047
sg8
g1043
sg9
S'Africa'
p1048
sbsS'Kyrgyzstan'
p1049
(ination
Nation
p1050
(dp1051
g4
S'77181'
p1052
sg6
S'5.6'
p1053
sg8
g1049
sg9
S'Asia'
p1054
sbsS'Andorra'
p1055
(ination
Nation
p1056
(dp1057
g4
S'181'
p1058
sg6
S'.085'
p1059
sg8
g1055
sg9
S'Europe'
p1060
sbsS'Sri Lanka'
p1061
(ination
Nation
p1062
(dp1063
g4
S'25332'
p1064
sg6
S'22.9'
p1065
sg8
g1061
sg9
S'Asia'
p1066
sbsS'Latvia'
p1067
(ination
Nation
p1068
(dp1069
g4
S'24938'
p1070
sg6
S'2.2'
p1071
sg8
g1067
sg9
S'Europe'
p1072
sbsS'South Sudan'
p1073
(ination
Nation
p1074
(dp1075
g4
S'239285'
p1076
sg6
S'11.6'
p1077
sg8
g1073
sg9
S'Africa'
p1078
sbsS'Japan'
p1079
(ination
Nation
p1080
(dp1081
g4
S'145883'
p1082
sg6
S'127.1'
p1083
sg8
g1079
sg9
S'Asia'
p1084
sbsS'Honduras'
p1085
(ination
Nation
p1086
(dp1087
g4
S'43278'
p1088
sg6
S'8.6'
p1089
sg8
g1085
sg9
S'North America'
p1090
sbsS'Myanmar'
p1091
(ination
Nation
p1092
(dp1093
g4
S'261227'
p1094
sg6
S'55.7'
p1095
sg8
g1091
sg9
S'Asia'
p1096
sbsS'Equatorial Guinea'
p1097
(ination
Nation
p1098
(dp1099
g4
S'10828'
p1100
sg6
S'.72'
p1101
sg8
g1097
sg9
S'Africa'
p1102
sbsS'Egypt'
p1103
(ination
Nation
p1104
(dp1105
g4
S'387048'
p1106
sg6
S'86.9'
p1107
sg8
g1103
sg9
S'Africa'
p1108
sbsS'Nicaragua'
p1109
(ination
Nation
p1110
(dp1111
g4
S'50193'
p1112
sg6
S'6.1'
p1113
sg8
g1109
sg9
S'North America'
p1114
sbsS'Singapore'
p1115
(ination
Nation
p1116
(dp1117
g4
S'274.2'
p1118
sg6
S'5.6'
p1119
sg8
g1115
sg9
S'Asia'
p1120
sbsS"Democratic People's Republic of Korea"
p1121
(ination
Nation
p1122
(dp1123
g4
S'46528'
p1124
sg6
S'24.9'
p1125
sg8
g1121
sg9
S'Asia'
p1126
sbsS'Botswana'
p1127
(ination
Nation
p1128
(dp1129
g4
S'224606'
p1130
sg6
S'2.2'
p1131
sg8
g1127
sg9
S'Africa'
p1132
sbsS'Timor-Leste'
p1133
(ination
Nation
p1134
(dp1135
g4
S'5743'
p1136
sg6
S'1.2'
p1137
sg8
g1133
sg9
S'Asia'
p1138
sbsS'Greece'
p1139
(ination
Nation
p1140
(dp1141
g4
S'50944'
p1142
sg6
S'11.8'
p1143
sg8
g1139
sg9
S'Europe'
p1144
sbsS'Paraguay'
p1145
(ination
Nation
p1146
(dp1147
g4
S'157048'
p1148
sg6
S'6.7'
p1149
sg8
g1145
sg9
S'South America'
p1150
sbsS'Namibia'
p1151
(ination
Nation
p1152
(dp1153
g4
S'318696'
p1154
sg6
S'2.2'
p1155
sg8
g1151
sg9
S'Africa'
p1156
sbsS'Comoros'
p1157
(ination
Nation
p1158
(dp1159
g4
S'863'
p1160
sg6
S'.77'
p1161
sg8
g1157
sg9
S'Africa'
p1162
sbs.